; Function Attrs: mustprogress uwtable
define noundef i32 @udat_format_75(ptr noundef %format, double noundef %dateToFormat, ptr noundef %result, i32 noundef %resultLength, ptr noundef %position, ptr noundef %status) local_unnamed_addr #1 personality ptr @__gxx_personality_v0 {
entry:
  %res = alloca %"class.icu_75::UnicodeString", align 8
  %fp = alloca %"class.icu_75::FieldPosition", align 8
  %agg.tmp = alloca %"class.icu_75::Char16Ptr", align 8
  %0 = load i32, ptr %status, align 4
  %cmp.i = icmp slt i32 %0, 1
  br i1 %cmp.i, label %if.end, label %return

if.end:                                           ; preds = %entry
  %cmp = icmp eq ptr %result, null
  br i1 %cmp, label %cond.true, label %cond.false

cond.true:                                        ; preds = %if.end
  %cmp1.not = icmp eq i32 %resultLength, 0
  br i1 %cmp1.not, label %if.end4.thread, label %if.then3

if.end4.thread:                                   ; preds = %cond.true
  store ptr getelementptr inbounds ({ [13 x ptr] }, ptr @_ZTVN6icu_7513UnicodeStringE, i64 0, i32 0, i64 2), ptr %res, align 8
  %fUnion2.i18 = getelementptr inbounds i8, ptr %res, i64 8
  store i16 2, ptr %fUnion2.i18, align 8
  br label %if.end8

cond.false:                                       ; preds = %if.end
  %cmp2 = icmp slt i32 %resultLength, 0
  br i1 %cmp2, label %if.then3, label %if.then6

if.then3:                                         ; preds = %cond.false, %cond.true
  store i32 1, ptr %status, align 4
  br label %return

if.then6:                                         ; preds = %cond.false
  store ptr getelementptr inbounds ({ [13 x ptr] }, ptr @_ZTVN6icu_7513UnicodeStringE, i64 0, i32 0, i64 2), ptr %res, align 8
  %fUnion2.i = getelementptr inbounds i8, ptr %res, i64 8
  store i16 2, ptr %fUnion2.i, align 8
  %call7 = invoke noundef nonnull align 8 dereferenceable(64) ptr @_ZN6icu_7513UnicodeString5setToEPDsii(ptr noundef nonnull align 8 dereferenceable(64) %res, ptr noundef nonnull %result, i32 noundef 0, i32 noundef %resultLength)
          to label %if.end8 unwind label %lpad

lpad:                                             ; preds = %if.then6
  %1 = landingpad { ptr, i32 }
          cleanup
  br label %ehcleanup28

if.end8:                                          ; preds = %if.end4.thread, %if.then6
  store ptr getelementptr inbounds ({ [5 x ptr] }, ptr @_ZTVN6icu_7513FieldPositionE, i64 0, i32 0, i64 2), ptr %fp, align 8
  %fField.i = getelementptr inbounds i8, ptr %fp, i64 8
  store i32 -1, ptr %fField.i, align 8
  %fBeginIndex.i = getelementptr inbounds i8, ptr %fp, i64 12
  store i32 0, ptr %fBeginIndex.i, align 4
  %fEndIndex.i = getelementptr inbounds i8, ptr %fp, i64 16
  store i32 0, ptr %fEndIndex.i, align 8
  %cmp10.not = icmp eq ptr %position, null
  br i1 %cmp10.not, label %if.end14, label %if.then11

if.then11:                                        ; preds = %if.end8
  %2 = load i32, ptr %position, align 4
  store i32 %2, ptr %fField.i, align 8
  br label %if.end14

lpad12:                                           ; preds = %if.end14
  %3 = landingpad { ptr, i32 }
          cleanup
  br label %ehcleanup

if.end14:                                         ; preds = %if.then11, %if.end8
  %call16 = invoke noundef nonnull align 8 dereferenceable(64) ptr @_ZNK6icu_7510DateFormat6formatEdRNS_13UnicodeStringERNS_13FieldPositionE(ptr noundef nonnull align 8 dereferenceable(352) %format, double noundef %dateToFormat, ptr noundef nonnull align 8 dereferenceable(64) %res, ptr noundef nonnull align 8 dereferenceable(20) %fp)
          to label %invoke.cont15 unwind label %lpad12

invoke.cont15:                                    ; preds = %if.end14
  br i1 %cmp10.not, label %if.end23, label %if.then18

if.then18:                                        ; preds = %invoke.cont15
  %beginIndex = getelementptr inbounds i8, ptr %position, i64 4
  %4 = load <2 x i32>, ptr %fBeginIndex.i, align 4
  store <2 x i32> %4, ptr %beginIndex, align 4
  br label %if.end23

if.end23:                                         ; preds = %if.then18, %invoke.cont15
  store ptr %result, ptr %agg.tmp, align 8
  %call27 = invoke noundef i32 @_ZNK6icu_7513UnicodeString7extractENS_9Char16PtrEiR10UErrorCode(ptr noundef nonnull align 8 dereferenceable(64) %res, ptr noundef nonnull %agg.tmp, i32 noundef %resultLength, ptr noundef nonnull align 4 dereferenceable(4) %status)
          to label %invoke.cont26 unwind label %lpad25

invoke.cont26:                                    ; preds = %if.end23
  %5 = load ptr, ptr %agg.tmp, align 8
  call void asm sideeffect "", "rm,~{memory},~{dirflag},~{fpsr},~{flags}"(ptr %5) #7, !srcloc !5
  call void @_ZN6icu_7513FieldPositionD1Ev(ptr noundef nonnull align 8 dereferenceable(20) %fp) #7
  call void @_ZN6icu_7513UnicodeStringD1Ev(ptr noundef nonnull align 8 dereferenceable(64) %res) #7
  br label %return

lpad25:                                           ; preds = %if.end23
  %6 = landingpad { ptr, i32 }
          cleanup
  %7 = load ptr, ptr %agg.tmp, align 8
  call void asm sideeffect "", "rm,~{memory},~{dirflag},~{fpsr},~{flags}"(ptr %7) #7, !srcloc !5
  br label %ehcleanup

ehcleanup:                                        ; preds = %lpad25, %lpad12
  %.pn = phi { ptr, i32 } [ %6, %lpad25 ], [ %3, %lpad12 ]
  call void @_ZN6icu_7513FieldPositionD1Ev(ptr noundef nonnull align 8 dereferenceable(20) %fp) #7
  br label %ehcleanup28

ehcleanup28:                                      ; preds = %ehcleanup, %lpad
  %.pn.pn = phi { ptr, i32 } [ %.pn, %ehcleanup ], [ %1, %lpad ]
  call void @_ZN6icu_7513UnicodeStringD1Ev(ptr noundef nonnull align 8 dereferenceable(64) %res) #7
  resume { ptr, i32 } %.pn.pn

return:                                           ; preds = %entry, %invoke.cont26, %if.then3
  %retval.0 = phi i32 [ -1, %if.then3 ], [ %call27, %invoke.cont26 ], [ -1, %entry ]
  ret i32 %retval.0
}